<*GNU-Linker-generated-mapfile*> 
generated for DSx86_32 platform 
collect2 version 10.3.0
c:/dspace/r2022a/dspace rcphil 2022-a/compiler/linux_4.14_gcc_10.3/target/x86_64-linux-gnu/bin/../lib/gcc/x86_64-linux-gnu/10.3.0/../../../../x86_64-linux-gnu/bin/ld.exe -plugin c:/dspace/r2022a/dspace rcphil 2022-a/compiler/linux_4.14_gcc_10.3/target/x86_64-linux-gnu/bin/../libexec/gcc/x86_64-linux-gnu/10.3.0/liblto_plugin-0.dll -plugin-opt=c:/dspace/r2022a/dspace rcphil 2022-a/compiler/linux_4.14_gcc_10.3/target/x86_64-linux-gnu/bin/../libexec/gcc/x86_64-linux-gnu/10.3.0/lto-wrapper.exe -plugin-opt=-fresolution=D:\Users\xiangl\AppData\Local\Temp\ccTPmZCv.res -plugin-opt=-pass-through=-lgcc_s -plugin-opt=-pass-through=-lgcc -plugin-opt=-pass-through=-lc -plugin-opt=-pass-through=-lgcc_s -plugin-opt=-pass-through=-lgcc --sysroot=c:\dspace\r2022a\dspace rcphil 2022-a\compiler\linux_4.14_gcc_10.3\target\x86_64-linux-gnu\bin\../../x86_64-linux-gnu --build-id --eh-frame-hdr -m elf_x86_64 -dynamic-linker /lib64/ld-linux-x86-64.so.2 c:/dspace/r2022a/dspace rcphil 2022-a/compiler/linux_4.14_gcc_10.3/target/x86_64-linux-gnu/bin/../../x86_64-linux-gnu/lib/crt1.o c:/dspace/r2022a/dspace rcphil 2022-a/compiler/linux_4.14_gcc_10.3/target/x86_64-linux-gnu/bin/../../x86_64-linux-gnu/lib/crti.o c:/dspace/r2022a/dspace rcphil 2022-a/compiler/linux_4.14_gcc_10.3/target/x86_64-linux-gnu/bin/../lib/gcc/x86_64-linux-gnu/10.3.0/crtbegin.o -Lc:/dspace/r2022a/dspace rcphil 2022-a/compiler/linux_4.14_gcc_10.3/target/x86_64-linux-gnu/bin/../lib/gcc/x86_64-linux-gnu/10.3.0 -Lc:/dspace/r2022a/dspace rcphil 2022-a/compiler/linux_4.14_gcc_10.3/target/x86_64-linux-gnu/bin/../lib/gcc -Lc:/dspace/r2022a/dspace rcphil 2022-a/compiler/linux_4.14_gcc_10.3/target/x86_64-linux-gnu/bin/../lib/gcc/x86_64-linux-gnu/10.3.0/../../../../x86_64-linux-gnu/lib/../lib64 -Lc:/dspace/r2022a/dspace rcphil 2022-a/compiler/linux_4.14_gcc_10.3/target/x86_64-linux-gnu/bin/../lib/gcc/x86_64-linux-gnu/10.3.0/../../../../x86_64-linux-gnu/lib -Lc:/dspace/r2022a/dspace rcphil 2022-a/compiler/linux_4.14_gcc_10.3/target/x86_64-linux-gnu/bin/../../x86_64-linux-gnu/lib -v --unresolved-symbols=ignore-all -lstdc++ -lm -lgcc_s -lgcc -lc -lgcc_s -lgcc c:/dspace/r2022a/dspace rcphil 2022-a/compiler/linux_4.14_gcc_10.3/target/x86_64-linux-gnu/bin/../lib/gcc/x86_64-linux-gnu/10.3.0/crtend.o c:/dspace/r2022a/dspace rcphil 2022-a/compiler/linux_4.14_gcc_10.3/target/x86_64-linux-gnu/bin/../../x86_64-linux-gnu/lib/crtn.o
GNU ld (GNU Binutils) 2.35
Archive member included to satisfy reference by file (symbol)

D:\Users\xiangl\AppData\Local\Temp\dSPACE\CfgDesk\Cache\1\DummyApp_XILAPI_ESI_Testing\Build\AppProc_Master\Compile\DsDefEnv\DsDefEnv.a(DsDefEnv.o64)
                              DsDefEnv_mdlfunctions.o64 (DsDefEnv_fmi2Instantiate)
C:\dSPACE\R2022A\dSPACE RCPHIL 2022-A\Compiler\Linux_4.14_GCC_10.3\target\x86_64-linux-gnu\lib\libc_nonshared.a(elf-init.oS)
                              c:/dspace/r2022a/dspace rcphil 2022-a/compiler/linux_4.14_gcc_10.3/target/x86_64-linux-gnu/bin/../../x86_64-linux-gnu/lib/Scrt1.o (__libc_csu_init)

Merging program properties

Removed property 0xc0000002 to merge c:/dspace/r2022a/dspace rcphil 2022-a/compiler/linux_4.14_gcc_10.3/target/x86_64-linux-gnu/bin/../lib/gcc/x86_64-linux-gnu/10.3.0/crtbeginS.o (0x3) and c:/dspace/r2022a/dspace rcphil 2022-a/compiler/linux_4.14_gcc_10.3/target/x86_64-linux-gnu/bin/../../x86_64-linux-gnu/lib/Scrt1.o (not found)
Removed property 0xc0000002 to merge c:/dspace/r2022a/dspace rcphil 2022-a/compiler/linux_4.14_gcc_10.3/target/x86_64-linux-gnu/bin/../lib/gcc/x86_64-linux-gnu/10.3.0/crtbeginS.o (not found) and c:/dspace/r2022a/dspace rcphil 2022-a/compiler/linux_4.14_gcc_10.3/target/x86_64-linux-gnu/bin/../lib/gcc/x86_64-linux-gnu/10.3.0/crtendS.o (0x3)

As-needed library included to satisfy reference by file (symbol)

libDsRealTimeTestingRP.so.1   rtosal_taskap.o64 (dsrtt_script_service_post_computation)

Discarded input sections

 .note.GNU-stack
                0x0000000000000000        0x0 c:/dspace/r2022a/dspace rcphil 2022-a/compiler/linux_4.14_gcc_10.3/target/x86_64-linux-gnu/bin/../../x86_64-linux-gnu/lib/Scrt1.o
 .note.GNU-stack
                0x0000000000000000        0x0 c:/dspace/r2022a/dspace rcphil 2022-a/compiler/linux_4.14_gcc_10.3/target/x86_64-linux-gnu/bin/../../x86_64-linux-gnu/lib/crti.o
 .note.GNU-stack
                0x0000000000000000        0x0 c:/dspace/r2022a/dspace rcphil 2022-a/compiler/linux_4.14_gcc_10.3/target/x86_64-linux-gnu/bin/../lib/gcc/x86_64-linux-gnu/10.3.0/crtbeginS.o
 .note.gnu.property
                0x0000000000000000       0x20 c:/dspace/r2022a/dspace rcphil 2022-a/compiler/linux_4.14_gcc_10.3/target/x86_64-linux-gnu/bin/../lib/gcc/x86_64-linux-gnu/10.3.0/crtbeginS.o
 .note.GNU-stack
                0x0000000000000000        0x0 mdladapter_mdlfunctions.o64
 .note.GNU-stack
                0x0000000000000000        0x0 mdlCode_ap.o64
 .note.GNU-stack
                0x0000000000000000        0x0 data_in_ap.o64
 .note.GNU-stack
                0x0000000000000000        0x0 data_out_ap.o64
 .note.GNU-stack
                0x0000000000000000        0x0 fm_entry_ap.o64
 .note.GNU-stack
                0x0000000000000000        0x0 fm_exit_ap.o64
 .note.GNU-stack
                0x0000000000000000        0x0 dssimengine_accesspoint.o64
 .note.GNU-stack
                0x0000000000000000        0x0 dssimengine_api.o64
 .group         0x0000000000000000        0x8 dssimengine_main.o64
 .group         0x0000000000000000        0xc dssimengine_main.o64
 .group         0x0000000000000000        0xc dssimengine_main.o64
 .group         0x0000000000000000        0xc dssimengine_main.o64
 .note.GNU-stack
                0x0000000000000000        0x0 dssimengine_main.o64
 .group         0x0000000000000000        0x8 rtosal_task.o64
 .group         0x0000000000000000        0xc rtosal_task.o64
 .group         0x0000000000000000        0xc rtosal_task.o64
 .group         0x0000000000000000        0xc rtosal_task.o64
 .data.rel.local.DW.ref.__gxx_personality_v0
                0x0000000000000000        0x8 rtosal_task.o64
 .note.GNU-stack
                0x0000000000000000        0x0 rtosal_task.o64
 .note.GNU-stack
                0x0000000000000000        0x0 rtosal_taskap.o64
 .note.GNU-stack
                0x0000000000000000        0x0 rtosal_simengineap.o64
 .note.GNU-stack
                0x0000000000000000        0x0 IOCode_Data.o64
 .note.GNU-stack
                0x0000000000000000        0x0 dssimengine_accesspoint_Ethernet_Setup.o64
 .note.GNU-stack
                0x0000000000000000        0x0 dssimengine_accesspoint_PTP_Master.o64
 .note.GNU-stack
                0x0000000000000000        0x0 DsDefEnv_mdlfunctions.o64
 .group         0x0000000000000000        0xc dsfmu_logger.o64
 .data.rel.local.DW.ref.__gxx_personality_v0
                0x0000000000000000        0x8 dsfmu_logger.o64
 .note.GNU-stack
                0x0000000000000000        0x0 dsfmu_logger.o64
 .group         0x0000000000000000        0xc dsfmu_callbacks.o64
 .data.rel.local.DW.ref.__gxx_personality_v0
                0x0000000000000000        0x8 dsfmu_callbacks.o64
 .note.GNU-stack
                0x0000000000000000        0x0 dsfmu_callbacks.o64
 .note.GNU-stack
                0x0000000000000000        0x0 dsfmu_readwrite.o64
 .note.GNU-stack
                0x0000000000000000        0x0 D:\Users\xiangl\AppData\Local\Temp\dSPACE\CfgDesk\Cache\1\DummyApp_XILAPI_ESI_Testing\Build\AppProc_Master\Compile\DsDefEnv\DsDefEnv.a(DsDefEnv.o64)
 .note.GNU-stack
                0x0000000000000000        0x0 C:\dSPACE\R2022A\dSPACE RCPHIL 2022-A\Compiler\Linux_4.14_GCC_10.3\target\x86_64-linux-gnu\lib\libc_nonshared.a(elf-init.oS)
 .note.GNU-stack
                0x0000000000000000        0x0 c:/dspace/r2022a/dspace rcphil 2022-a/compiler/linux_4.14_gcc_10.3/target/x86_64-linux-gnu/bin/../lib/gcc/x86_64-linux-gnu/10.3.0/crtendS.o
 .note.gnu.property
                0x0000000000000000       0x20 c:/dspace/r2022a/dspace rcphil 2022-a/compiler/linux_4.14_gcc_10.3/target/x86_64-linux-gnu/bin/../lib/gcc/x86_64-linux-gnu/10.3.0/crtendS.o
 .note.GNU-stack
                0x0000000000000000        0x0 c:/dspace/r2022a/dspace rcphil 2022-a/compiler/linux_4.14_gcc_10.3/target/x86_64-linux-gnu/bin/../../x86_64-linux-gnu/lib/crtn.o

Memory Configuration

Name             Origin             Length             Attributes
*default*        0x0000000000000000 0xffffffffffffffff

Linker script and memory map

LOAD c:/dspace/r2022a/dspace rcphil 2022-a/compiler/linux_4.14_gcc_10.3/target/x86_64-linux-gnu/bin/../../x86_64-linux-gnu/lib/Scrt1.o
LOAD c:/dspace/r2022a/dspace rcphil 2022-a/compiler/linux_4.14_gcc_10.3/target/x86_64-linux-gnu/bin/../../x86_64-linux-gnu/lib/crti.o
LOAD c:/dspace/r2022a/dspace rcphil 2022-a/compiler/linux_4.14_gcc_10.3/target/x86_64-linux-gnu/bin/../lib/gcc/x86_64-linux-gnu/10.3.0/crtbeginS.o
                0x00000000000009ce                DS_TARGET_PLATFORM = 0x9ce
LOAD C:\dSPACE\R2022A\dSPACE RCPHIL 2022-A\Compiler\Linux_4.14_GCC_10.3\target\x86_64-linux-gnu\lib/libpthread.so
LOAD C:\dSPACE\R2022A\dSPACE RCPHIL 2022-A\Compiler\Linux_4.14_GCC_10.3\target\x86_64-linux-gnu\lib/librt.so
LOAD C:\dSPACE\R2022A\dSPACE RCPHIL 2022-A\Compiler\Linux_4.14_GCC_10.3\target\x86_64-linux-gnu\lib/libdl.so
START GROUP
LOAD mdladapter_mdlfunctions.o64
LOAD mdlCode_ap.o64
LOAD data_in_ap.o64
LOAD data_out_ap.o64
LOAD fm_entry_ap.o64
LOAD fm_exit_ap.o64
LOAD dssimengine_accesspoint.o64
LOAD dssimengine_api.o64
LOAD dssimengine_main.o64
LOAD rtosal_task.o64
LOAD rtosal_taskap.o64
LOAD rtosal_simengineap.o64
LOAD IOCode_Data.o64
LOAD dssimengine_accesspoint_Ethernet_Setup.o64
LOAD dssimengine_accesspoint_PTP_Master.o64
LOAD DsDefEnv_mdlfunctions.o64
LOAD dsfmu_logger.o64
LOAD dsfmu_callbacks.o64
LOAD dsfmu_readwrite.o64
LOAD D:\Users\xiangl\AppData\Local\Temp\dSPACE\CfgDesk\Cache\1\DummyApp_XILAPI_ESI_Testing\Build\AppProc_Master\Compile\DsDefEnv\DsDefEnv.a
LOAD C:\dSPACE\R2022A\dSPACE RCPHIL 2022-A\SCALEXIO\lib64/libdsethernetinterfacemanagementdrv.so
LOAD C:\dSPACE\R2022A\dSPACE RCPHIL 2022-A\SCALEXIO\lib64/libDsEthTimeSyn.so
LOAD C:\dSPACE\R2022A\dSPACE RCPHIL 2022-A\SCALEXIO\lib64/libdscandrv.so
LOAD C:\dSPACE\R2022A\dSPACE RCPHIL 2022-A\SCALEXIO\lib64/libdslindrv.so
END GROUP
LOAD C:\dSPACE\R2022A\dSPACE RCPHIL 2022-A\SCALEXIO\lib64/libDsRtLib.so
LOAD C:\dSPACE\R2022A\dSPACE RCPHIL 2022-A\Compiler\Linux_4.14_GCC_10.3\target\x86_64-linux-gnu\x86_64-linux-gnu\lib64/libstdc++.so
LOAD C:\dSPACE\R2022A\dSPACE RCPHIL 2022-A\Compiler\Linux_4.14_GCC_10.3\target\x86_64-linux-gnu\lib/libm.so
START GROUP
LOAD C:\dSPACE\R2022A\dSPACE RCPHIL 2022-A\Compiler\Linux_4.14_GCC_10.3\target\x86_64-linux-gnu\lib\libm.so.6
LOAD C:\dSPACE\R2022A\dSPACE RCPHIL 2022-A\Compiler\Linux_4.14_GCC_10.3\target\x86_64-linux-gnu\lib\libmvec.so.1
END GROUP
LOAD C:\dSPACE\R2022A\dSPACE RCPHIL 2022-A\Compiler\Linux_4.14_GCC_10.3\target\x86_64-linux-gnu\x86_64-linux-gnu\lib/libgcc_s.so
START GROUP
LOAD C:\dSPACE\R2022A\dSPACE RCPHIL 2022-A\Compiler\Linux_4.14_GCC_10.3\target\x86_64-linux-gnu\x86_64-linux-gnu\lib\libgcc_s.so.1
LOAD c:/dspace/r2022a/dspace rcphil 2022-a/compiler/linux_4.14_gcc_10.3/target/x86_64-linux-gnu/bin/../lib/gcc/x86_64-linux-gnu/10.3.0\libgcc.a
END GROUP
LOAD c:/dspace/r2022a/dspace rcphil 2022-a/compiler/linux_4.14_gcc_10.3/target/x86_64-linux-gnu/bin/../lib/gcc/x86_64-linux-gnu/10.3.0\libgcc.a
LOAD C:\dSPACE\R2022A\dSPACE RCPHIL 2022-A\Compiler\Linux_4.14_GCC_10.3\target\x86_64-linux-gnu\lib/libc.so
START GROUP
LOAD C:\dSPACE\R2022A\dSPACE RCPHIL 2022-A\Compiler\Linux_4.14_GCC_10.3\target\x86_64-linux-gnu\lib\libc.so.6
LOAD C:\dSPACE\R2022A\dSPACE RCPHIL 2022-A\Compiler\Linux_4.14_GCC_10.3\target\x86_64-linux-gnu\lib\libc_nonshared.a
LOAD C:\dSPACE\R2022A\dSPACE RCPHIL 2022-A\Compiler\Linux_4.14_GCC_10.3\target\x86_64-linux-gnu\lib\ld-linux-x86-64.so.2
END GROUP
LOAD C:\dSPACE\R2022A\dSPACE RCPHIL 2022-A\Compiler\Linux_4.14_GCC_10.3\target\x86_64-linux-gnu\x86_64-linux-gnu\lib/libgcc_s.so
START GROUP
LOAD C:\dSPACE\R2022A\dSPACE RCPHIL 2022-A\Compiler\Linux_4.14_GCC_10.3\target\x86_64-linux-gnu\x86_64-linux-gnu\lib\libgcc_s.so.1
LOAD c:/dspace/r2022a/dspace rcphil 2022-a/compiler/linux_4.14_gcc_10.3/target/x86_64-linux-gnu/bin/../lib/gcc/x86_64-linux-gnu/10.3.0\libgcc.a
END GROUP
LOAD c:/dspace/r2022a/dspace rcphil 2022-a/compiler/linux_4.14_gcc_10.3/target/x86_64-linux-gnu/bin/../lib/gcc/x86_64-linux-gnu/10.3.0\libgcc.a
LOAD c:/dspace/r2022a/dspace rcphil 2022-a/compiler/linux_4.14_gcc_10.3/target/x86_64-linux-gnu/bin/../lib/gcc/x86_64-linux-gnu/10.3.0/crtendS.o
LOAD c:/dspace/r2022a/dspace rcphil 2022-a/compiler/linux_4.14_gcc_10.3/target/x86_64-linux-gnu/bin/../../x86_64-linux-gnu/lib/crtn.o
                [!provide]                        PROVIDE (__executable_start = SEGMENT_START ("text-segment", 0x0))
                0x00000000000002a8                . = (SEGMENT_START ("text-segment", 0x0) + SIZEOF_HEADERS)

.interp         0x00000000000002a8       0x1c
 *(.interp)
 .interp        0x00000000000002a8       0x1c c:/dspace/r2022a/dspace rcphil 2022-a/compiler/linux_4.14_gcc_10.3/target/x86_64-linux-gnu/bin/../../x86_64-linux-gnu/lib/Scrt1.o

.note.gnu.build-id
                0x00000000000002c4       0x24
 *(.note.gnu.build-id)
 .note.gnu.build-id
                0x00000000000002c4       0x24 c:/dspace/r2022a/dspace rcphil 2022-a/compiler/linux_4.14_gcc_10.3/target/x86_64-linux-gnu/bin/../../x86_64-linux-gnu/lib/Scrt1.o

.note.ABI-tag   0x00000000000002e8       0x20
 .note.ABI-tag  0x00000000000002e8       0x20 c:/dspace/r2022a/dspace rcphil 2022-a/compiler/linux_4.14_gcc_10.3/target/x86_64-linux-gnu/bin/../../x86_64-linux-gnu/lib/Scrt1.o

.hash           0x0000000000000308      0x23c
 *(.hash)
 .hash          0x0000000000000308      0x23c c:/dspace/r2022a/dspace rcphil 2022-a/compiler/linux_4.14_gcc_10.3/target/x86_64-linux-gnu/bin/../../x86_64-linux-gnu/lib/Scrt1.o

.gnu.hash       0x0000000000000548       0x24
 *(.gnu.hash)
 .gnu.hash      0x0000000000000548       0x24 c:/dspace/r2022a/dspace rcphil 2022-a/compiler/linux_4.14_gcc_10.3/target/x86_64-linux-gnu/bin/../../x86_64-linux-gnu/lib/Scrt1.o

.dynsym         0x0000000000000570      0x6f0
 *(.dynsym)
 .dynsym        0x0000000000000570      0x6f0 c:/dspace/r2022a/dspace rcphil 2022-a/compiler/linux_4.14_gcc_10.3/target/x86_64-linux-gnu/bin/../../x86_64-linux-gnu/lib/Scrt1.o

.dynstr         0x0000000000000c60      0xb85
 *(.dynstr)
 .dynstr        0x0000000000000c60      0xb85 c:/dspace/r2022a/dspace rcphil 2022-a/compiler/linux_4.14_gcc_10.3/target/x86_64-linux-gnu/bin/../../x86_64-linux-gnu/lib/Scrt1.o

.gnu.version    0x00000000000017e6       0x94
 *(.gnu.version)
 .gnu.version   0x00000000000017e6       0x94 c:/dspace/r2022a/dspace rcphil 2022-a/compiler/linux_4.14_gcc_10.3/target/x86_64-linux-gnu/bin/../../x86_64-linux-gnu/lib/Scrt1.o

.gnu.version_d  0x0000000000001880        0x0
 *(.gnu.version_d)
 .gnu.version_d
                0x0000000000001880        0x0 c:/dspace/r2022a/dspace rcphil 2022-a/compiler/linux_4.14_gcc_10.3/target/x86_64-linux-gnu/bin/../../x86_64-linux-gnu/lib/Scrt1.o

.gnu.version_r  0x0000000000001880       0x80
 *(.gnu.version_r)
 .gnu.version_r
                0x0000000000001880       0x80 c:/dspace/r2022a/dspace rcphil 2022-a/compiler/linux_4.14_gcc_10.3/target/x86_64-linux-gnu/bin/../../x86_64-linux-gnu/lib/Scrt1.o

.rela.dyn       0x0000000000001900      0x9f0
 *(.rela.init)
 *(.rela.text .rela.text.* .rela.gnu.linkonce.t.*)
 .rela.text     0x0000000000001900        0x0 c:/dspace/r2022a/dspace rcphil 2022-a/compiler/linux_4.14_gcc_10.3/target/x86_64-linux-gnu/bin/../../x86_64-linux-gnu/lib/Scrt1.o
 *(.rela.fini)
 *(.rela.rodata .rela.rodata.* .rela.gnu.linkonce.r.*)
 *(.rela.data .rela.data.* .rela.gnu.linkonce.d.*)
 .rela.data.rel.ro
                0x0000000000001900        0x0 c:/dspace/r2022a/dspace rcphil 2022-a/compiler/linux_4.14_gcc_10.3/target/x86_64-linux-gnu/bin/../../x86_64-linux-gnu/lib/Scrt1.o
 .rela.data.rel.local
                0x0000000000001900       0x18 c:/dspace/r2022a/dspace rcphil 2022-a/compiler/linux_4.14_gcc_10.3/target/x86_64-linux-gnu/bin/../../x86_64-linux-gnu/lib/Scrt1.o
 .rela.data.rel.ro._ZTI18DsCApplicationMain
                0x0000000000001918       0x48 c:/dspace/r2022a/dspace rcphil 2022-a/compiler/linux_4.14_gcc_10.3/target/x86_64-linux-gnu/bin/../../x86_64-linux-gnu/lib/Scrt1.o
 .rela.data.rel.ro._ZTV18DsCApplicationMain
                0x0000000000001960       0xd8 c:/dspace/r2022a/dspace rcphil 2022-a/compiler/linux_4.14_gcc_10.3/target/x86_64-linux-gnu/bin/../../x86_64-linux-gnu/lib/Scrt1.o
 .rela.data.rel
                0x0000000000001a38       0xf0 c:/dspace/r2022a/dspace rcphil 2022-a/compiler/linux_4.14_gcc_10.3/target/x86_64-linux-gnu/bin/../../x86_64-linux-gnu/lib/Scrt1.o
 .rela.data.rel.local.DW.ref.__gxx_personality_v0
                0x0000000000001b28       0x18 c:/dspace/r2022a/dspace rcphil 2022-a/compiler/linux_4.14_gcc_10.3/target/x86_64-linux-gnu/bin/../../x86_64-linux-gnu/lib/Scrt1.o
 .rela.data.rel.ro._ZTI24DsCRtosAlPeriodic_Task_1
                0x0000000000001b40       0x48 c:/dspace/r2022a/dspace rcphil 2022-a/compiler/linux_4.14_gcc_10.3/target/x86_64-linux-gnu/bin/../../x86_64-linux-gnu/lib/Scrt1.o
 .rela.data.rel.ro._ZTV24DsCRtosAlPeriodic_Task_1
                0x0000000000001b88       0x78 c:/dspace/r2022a/dspace rcphil 2022-a/compiler/linux_4.14_gcc_10.3/target/x86_64-linux-gnu/bin/../../x86_64-linux-gnu/lib/Scrt1.o
 *(.rela.tdata .rela.tdata.* .rela.gnu.linkonce.td.*)
 *(.rela.tbss .rela.tbss.* .rela.gnu.linkonce.tb.*)
 *(.rela.ctors)
 .rela.ctors    0x0000000000001c00       0x60 c:/dspace/r2022a/dspace rcphil 2022-a/compiler/linux_4.14_gcc_10.3/target/x86_64-linux-gnu/bin/../../x86_64-linux-gnu/lib/Scrt1.o
 *(.rela.dtors)
 *(.rela.got)
 .rela.got      0x0000000000001c60      0x678 c:/dspace/r2022a/dspace rcphil 2022-a/compiler/linux_4.14_gcc_10.3/target/x86_64-linux-gnu/bin/../../x86_64-linux-gnu/lib/Scrt1.o
 *(.rela.bss .rela.bss.* .rela.gnu.linkonce.b.*)
 .rela.bss      0x00000000000022d8        0x0 c:/dspace/r2022a/dspace rcphil 2022-a/compiler/linux_4.14_gcc_10.3/target/x86_64-linux-gnu/bin/../../x86_64-linux-gnu/lib/Scrt1.o
 *(.rela.ldata .rela.ldata.* .rela.gnu.linkonce.l.*)
 *(.rela.lbss .rela.lbss.* .rela.gnu.linkonce.lb.*)
 *(.rela.lrodata .rela.lrodata.* .rela.gnu.linkonce.lr.*)
 *(.rela.ifunc)
 .rela.ifunc    0x00000000000022d8        0x0 c:/dspace/r2022a/dspace rcphil 2022-a/compiler/linux_4.14_gcc_10.3/target/x86_64-linux-gnu/bin/../../x86_64-linux-gnu/lib/Scrt1.o
 .rela.init_array
                0x00000000000022d8       0x18 c:/dspace/r2022a/dspace rcphil 2022-a/compiler/linux_4.14_gcc_10.3/target/x86_64-linux-gnu/bin/../../x86_64-linux-gnu/lib/Scrt1.o
 .rela.eh_frame
                0x00000000000022f0        0x0 c:/dspace/r2022a/dspace rcphil 2022-a/compiler/linux_4.14_gcc_10.3/target/x86_64-linux-gnu/bin/../../x86_64-linux-gnu/lib/Scrt1.o

.rela.plt       0x00000000000022f0        0x0
 *(.rela.plt)
 .rela.plt      0x00000000000022f0        0x0 c:/dspace/r2022a/dspace rcphil 2022-a/compiler/linux_4.14_gcc_10.3/target/x86_64-linux-gnu/bin/../../x86_64-linux-gnu/lib/Scrt1.o
 *(.rela.iplt)
                0x0000000000003000                . = ALIGN (CONSTANT (MAXPAGESIZE))

.init           0x0000000000003000       0x17
 *(SORT_NONE(.init))
 .init          0x0000000000003000       0x12 c:/dspace/r2022a/dspace rcphil 2022-a/compiler/linux_4.14_gcc_10.3/target/x86_64-linux-gnu/bin/../../x86_64-linux-gnu/lib/crti.o
                0x0000000000003000                _init
 .init          0x0000000000003012        0x5 c:/dspace/r2022a/dspace rcphil 2022-a/compiler/linux_4.14_gcc_10.3/target/x86_64-linux-gnu/bin/../../x86_64-linux-gnu/lib/crtn.o

.plt            0x0000000000003020       0x10
 *(.plt)
 .plt           0x0000000000003020       0x10 c:/dspace/r2022a/dspace rcphil 2022-a/compiler/linux_4.14_gcc_10.3/target/x86_64-linux-gnu/bin/../../x86_64-linux-gnu/lib/Scrt1.o
 *(.iplt)

.plt.got        0x0000000000003030        0x8
 *(.plt.got)
 .plt.got       0x0000000000003030        0x8 c:/dspace/r2022a/dspace rcphil 2022-a/compiler/linux_4.14_gcc_10.3/target/x86_64-linux-gnu/bin/../../x86_64-linux-gnu/lib/Scrt1.o
                0x0000000000003030                __cxa_finalize@@GLIBC_2.2.5

.plt.sec
 *(.plt.sec)

.text           0x0000000000003040     0x2291
 *(.text.unlikely .text.*_unlikely .text.unlikely.*)
 .text.unlikely
                0x0000000000003040       0x1a dssimengine_main.o64
 .text.unlikely
                0x000000000000305a       0x1a rtosal_task.o64
 .text.unlikely
                0x0000000000003074       0x3f dsfmu_logger.o64
 .text.unlikely
                0x00000000000030b3       0x15 dsfmu_callbacks.o64
 *(.text.exit .text.exit.*)
 *(.text.startup .text.startup.*)
 *fill*         0x00000000000030c8        0x8 
 .text.startup  0x00000000000030d0       0x29 dssimengine_main.o64
                0x00000000000030d0                _Z32__registerApplDsCApplicationMainv
 *fill*         0x00000000000030f9        0x7 
 .text.startup  0x0000000000003100       0x12 rtosal_simengineap.o64
                0x0000000000003100                _Z21__registerRTTMPConfigv
 *fill*         0x0000000000003112        0xe 
 .text.startup  0x0000000000003120       0x14 IOCode_Data.o64
                0x0000000000003120                _Z31__registerResourceg_ResourceMapv
 *(.text.hot .text.hot.*)
 *(SORT_BY_NAME(.text.sorted.*))
 *(.text .stub .text.* .gnu.linkonce.t.*)
 *fill*         0x0000000000003134        0xc 
 .text          0x0000000000003140       0x2b c:/dspace/r2022a/dspace rcphil 2022-a/compiler/linux_4.14_gcc_10.3/target/x86_64-linux-gnu/bin/../../x86_64-linux-gnu/lib/Scrt1.o
                0x0000000000003140                _start
 .text          0x000000000000316b        0x0 c:/dspace/r2022a/dspace rcphil 2022-a/compiler/linux_4.14_gcc_10.3/target/x86_64-linux-gnu/bin/../../x86_64-linux-gnu/lib/crti.o
 *fill*         0x000000000000316b        0x5 
 .text          0x0000000000003170      0x109 c:/dspace/r2022a/dspace rcphil 2022-a/compiler/linux_4.14_gcc_10.3/target/x86_64-linux-gnu/bin/../lib/gcc/x86_64-linux-gnu/10.3.0/crtbeginS.o
 *fill*         0x0000000000003279        0x7 
 .text          0x0000000000003280       0x36 mdladapter_mdlfunctions.o64
                0x0000000000003280                DsDefEnv_DSFMUAPLastApplStateStopped
                0x00000000000032a0                DsDefEnv_DSFMUAPTerminateSimulation
                0x00000000000032b0                DsDefEnv_DSFMUAPStopSimulation
 .text          0x00000000000032b6        0x0 mdlCode_ap.o64
 .text          0x00000000000032b6        0x0 data_in_ap.o64
 .text          0x00000000000032b6        0x0 data_out_ap.o64
 *fill*         0x00000000000032b6        0xa 
 .text          0x00000000000032c0       0x10 fm_entry_ap.o64
                0x00000000000032c0                DsDefEnv_DSFMUAPFcnModuleEntry0
 .text          0x00000000000032d0       0x10 fm_exit_ap.o64
                0x00000000000032d0                DsDefEnv_DSFMUAPFcnModuleExit0
 .text          0x00000000000032e0      0x683 dssimengine_accesspoint.o64
                0x00000000000032e0                ApSimEngineOnInitMdl
                0x0000000000003300                ApSimEngineOnStartMdl
                0x0000000000003320                ApSimEngineOnStopMdl
                0x0000000000003340                ApSimEngineOnTerminateMdl
                0x0000000000003350                ApSimEngineOnUnloadMdl
                0x0000000000003370                ApSimEngineOnInitImc
                0x0000000000003390                ApSimEngineOnStartImc
                0x00000000000033b0                ApSimEngineOnStopImc
                0x00000000000033d0                ApSimEngineOnTerminateImc
                0x00000000000033f0                ApSimEngineOnUnloadImc
                0x0000000000003410                ApSimEngineOnInitIoPreRtosInit
                0x00000000000034c0                ApSimEngineOnInitHwDiagnostics
                0x00000000000035f0                ApSimEngineOnStopIo
                0x0000000000003610                ApSimEngineOnTerminateIo
                0x0000000000003630                ApSimEngineOnUnloadIo
                0x0000000000003650                ApSimEngineOnInitRtos
                0x00000000000036a0                ApSimEngineOnStartRtos
                0x00000000000036c0                ApSimEngineOnStopRtos
                0x00000000000036e0                ApSimEngineOnStop
                0x0000000000003730                ApSimEngineOnTerminateRtos
                0x0000000000003750                ApSimEngineOnTerminate
                0x00000000000037a0                ApSimEngineOnUnloadRtos
                0x00000000000037c0                ApSimEngineOnUnload
                0x0000000000003810                ApSimEngineIdle
                0x0000000000003830                _Z22ApSimEngineRunTimeInitR16DsCErrorListPooli
                0x0000000000003840                ApSimEngineOnInitIoPostRtosInit
                0x0000000000003870                ApSimEngineOnInit
                0x00000000000038d0                ApSimEngineOnStartIo
                0x0000000000003920                ApSimEngineOnStart
 *fill*         0x0000000000003963        0xd 
 .text          0x0000000000003970       0x57 dssimengine_api.o64
                0x0000000000003970                _Z25SimEngineLastApplStateGetv
                0x0000000000003980                _Z16SimEngineApplGetv
                0x0000000000003990                _Z17SimEngineApplStopv
                0x00000000000039b0                _Z22SimEngineApplTerminatev
 *fill*         0x00000000000039c7        0x9 
 .text          0x00000000000039d0      0x187 dssimengine_main.o64
                0x00000000000039d0                destroyApplication
                0x00000000000039f0                getApplicationErrorList
                0x0000000000003a00                _ZN18DsCApplicationMainD1Ev
                0x0000000000003a00                _ZN18DsCApplicationMainD2Ev
                0x0000000000003a30                _ZN18DsCApplicationMainD0Ev
                0x0000000000003a50                _ZN18DsCApplicationMain6onInitER16DsCErrorListPool
                0x0000000000003a70                _ZN18DsCApplicationMain7onStartER16DsCErrorListPool
                0x0000000000003a90                _ZN18DsCApplicationMain6onStopER16DsCErrorListPool
                0x0000000000003ab0                _ZN18DsCApplicationMain11onTerminateER16DsCErrorListPool
                0x0000000000003ad0                _ZN18DsCApplicationMain8onUnloadER16DsCErrorListPool
                0x0000000000003ae0                _ZN18DsCApplicationMain6onIdleER16DsCErrorListPool
                0x0000000000003af0                _ZN18DsCApplicationMainC2ER16DsCErrorListPool
                0x0000000000003af0                _ZN18DsCApplicationMainC1ER16DsCErrorListPool
                0x0000000000003b20                createApplication
 *fill*         0x0000000000003b57        0x9 
 .text          0x0000000000003b60      0x392 rtosal_task.o64
                0x0000000000003b60                _ZN24DsCRtosAlPeriodic_Task_1D1Ev
                0x0000000000003b60                _ZN24DsCRtosAlPeriodic_Task_1D2Ev
                0x0000000000003b80                _ZN24DsCRtosAlPeriodic_Task_1D0Ev
                0x0000000000003ba0                _ZN24DsCRtosAlPeriodic_Task_15onRunER16DsCErrorListPool
                0x0000000000003c60                _ZN24DsCRtosAlPeriodic_Task_1C1ER16DsCErrorListPoolP14DsCApplicationPKcjjjjjjjP7DsCTaskj
                0x0000000000003c60                _ZN24DsCRtosAlPeriodic_Task_1C2ER16DsCErrorListPoolP14DsCApplicationPKcjjjjjjjP7DsCTaskj
                0x0000000000003cb0                _ZN24DsCRtosAlPeriodic_Task_16createER16DsCErrorListPoolP14DsCApplicationPKcjjjjjjjP7DsCTaskj
                0x0000000000003d60                _Z37RtosAlDefaultDeadlineViolationHandlerR16DsCErrorListPoolP7DsCTask
                0x0000000000003e00                _Z35RtosAlProfilerSourcesInitializationv
                0x0000000000003e10                _Z20RtosAlHandleOverrunsP7DsCTaski
                0x0000000000003ee0                _ZN24DsCRtosAlPeriodic_Task_19onOverrunER16DsCErrorListPool
 *fill*         0x0000000000003ef2        0xe 
 .text          0x0000000000003f00       0xf7 rtosal_taskap.o64
                0x0000000000003f00                DSFMUGetAbsoluteTime
                0x0000000000003f20                RtosAlTask_01_TaskEntry
                0x0000000000003f50                RtosAlTask_01_TaskExit
 *fill*         0x0000000000003ff7        0x9 
 .text          0x0000000000004000      0x2a3 rtosal_simengineap.o64
                0x0000000000004000                _Z12RtosAlOnInitR16DsCErrorListPool
                0x00000000000040f0                _Z13RtosAlOnStartR16DsCErrorListPool
 *fill*         0x00000000000042a3        0xd 
 .text          0x00000000000042b0      0x137 IOCode_Data.o64
                0x00000000000042b0                GetEthernetHandleForSetup_PTPSync_HIL
                0x00000000000042c0                _Z29ap_entry_RuntimeTunableParamsv
                0x00000000000042f0                _Z28ap_exit_RuntimeTunableParamsv
 *fill*         0x00000000000043e7        0x9 
 .text          0x00000000000043f0      0x124 dssimengine_accesspoint_Ethernet_Setup.o64
                0x00000000000043f0                _Z59ApSimEngineOnInitIoPreRtosInit_ctlcBODY_1_Setup_PTPSync_HILR16DsCErrorListPoolP14DsCApplication
                0x0000000000004410                _Z60ApSimEngineOnInitIoPostRtosInit_ctlcBODY_0_Setup_PTPSync_HILR16DsCErrorListPool
 *fill*         0x0000000000004514        0xc 
 .text          0x0000000000004520      0x150 dssimengine_accesspoint_PTP_Master.o64
                0x0000000000004520                _Z55ApSimEngineOnInitIoPreRtosInit_ctlcBODY_3_PTPMaster_HILR16DsCErrorListPoolP14DsCApplication
                0x0000000000004610                _Z45ApSimEngineOnStartIo_ctlcBODY_0_PTPMaster_HILR16DsCErrorListPool
                0x0000000000004640                _Z44ApSimEngineOnStopIo_ctlcBODY_0_PTPMaster_HILR16DsCErrorListPool
                0x0000000000004660                _Z46ApSimEngineOnUnloadIo_ctlcBODY_0_PTPMaster_HILR16DsCErrorListPool
 .text          0x0000000000004670      0x391 DsDefEnv_mdlfunctions.o64
                0x0000000000004670                DsDefEnv_DSFMUProvideInputs
                0x0000000000004680                DsDefEnv_DSFMUGetOutputs
                0x0000000000004690                DsDefEnv_DSFMUProvideParameters
                0x00000000000046a0                DsDefEnv_DSFMUProvideParametersInit
                0x00000000000046b0                DsDefEnv_DSFMUGetDependentParameters
                0x00000000000046c0                DsDefEnv_DSFMUGetDependentParametersInit
                0x00000000000046d0                DsDefEnv_DSFMUTerminateSimulation
                0x0000000000004710                DsDefEnv_DSFMUInitMdl
                0x0000000000004790                DsDefEnv_DSFMUStartMdl
                0x0000000000004890                DsDefEnv_DSFMUForceStopMdl
                0x0000000000004920                DsDefEnv_DSFMUStep
                0x00000000000049a0                DsDefEnv_DSFMUStopMdl
                0x0000000000004a00                DsDefEnv_DSFMUCheckForSimulationStopCondition
 *fill*         0x0000000000004a01        0xf 
 .text          0x0000000000004a10      0x4ab dsfmu_logger.o64
                0x0000000000004a10                _ZN11DSFMULogger17fmiStatusToStringB5cxx11E10fmi2Status
                0x0000000000004b20                _ZN11DSFMULogger9fmuLoggerEPvPKc10fmi2StatusS2_S2_z
                0x0000000000004c50                _ZN12DSFMULogger317fmiStatusToStringB5cxx11E10fmi3Status
                0x0000000000004d40                _ZN12DSFMULogger39fmuLoggerEPvPKc10fmi3StatusS2_S2_z
 *fill*         0x0000000000004ebb        0x5 
 .text          0x0000000000004ec0       0xb3 dsfmu_callbacks.o64
                0x0000000000004ec0                _ZN14DSFMUCallBacks17cb_lockPreemptionEv
                0x0000000000004ed0                _ZN14DSFMUCallBacks19cb_unlockPreemptionEv
                0x0000000000004ee0                _ZN14DSFMUCallBacks13cb_logMessageEPvPKc10fmi3StatusS2_S2_
                0x0000000000004f50                _ZN14DSFMUCallBacks17cb_allocateMemoryEPvmm
                0x0000000000004f60                _ZN14DSFMUCallBacks13cb_freeMemoryEPvS0_
                0x0000000000004f70                _ZN14DSFMUCallBacks21cb_intermediateUpdateEPvdbbbbbb
 *fill*         0x0000000000004f73        0xd 
 .text          0x0000000000004f80       0x51 dsfmu_readwrite.o64
                0x0000000000004f80                _Z25GetApplicationDownloadDirPKc
                0x0000000000004fc0                DsDefEnv_DSFMUReadInputs
                0x0000000000004fd0                _Z26DsDefEnv_DSFMUWriteOutputsv
 *fill*         0x0000000000004fd1        0xf 
 .text          0x0000000000004fe0      0x283 D:\Users\xiangl\AppData\Local\Temp\dSPACE\CfgDesk\Cache\1\DummyApp_XILAPI_ESI_Testing\Build\AppProc_Master\Compile\DsDefEnv\DsDefEnv.a(DsDefEnv.o64)
                0x0000000000004fe0                DsDefEnv_fmi2GetTypesPlatform
                0x0000000000004ff0                DsDefEnv_fmi2GetVersion
                0x0000000000005000                DsDefEnv_fmi2SetDebugLogging
                0x0000000000005010                DsDefEnv_fmi2Instantiate
                0x00000000000050e0                DsDefEnv_fmi2FreeInstance
                0x0000000000005100                DsDefEnv_fmi2SetupExperiment
                0x0000000000005110                DsDefEnv_fmi2EnterInitializationMode
                0x0000000000005120                DsDefEnv_fmi2ExitInitializationMode
                0x0000000000005130                DsDefEnv_fmi2Terminate
                0x0000000000005140                DsDefEnv_fmi2Reset
                0x0000000000005150                DsDefEnv_fmi2GetReal
                0x0000000000005160                DsDefEnv_fmi2GetInteger
                0x0000000000005170                DsDefEnv_fmi2GetBoolean
                0x0000000000005180                DsDefEnv_fmi2GetString
                0x0000000000005190                DsDefEnv_fmi2SetReal
                0x00000000000051a0                DsDefEnv_fmi2SetInteger
                0x00000000000051b0                DsDefEnv_fmi2SetBoolean
                0x00000000000051c0                DsDefEnv_fmi2SetString
                0x00000000000051d0                DsDefEnv_fmi2GetDirectionalDerivative
                0x00000000000051e0                DsDefEnv_fmi2SetRealInputDerivatives
                0x00000000000051f0                DsDefEnv_fmi2GetRealOutputDerivatives
                0x0000000000005200                DsDefEnv_fmi2DoStep
                0x0000000000005210                DsDefEnv_fmi2CancelStep
                0x0000000000005220                DsDefEnv_fmi2GetStatus
                0x0000000000005230                DsDefEnv_fmi2GetRealStatus
                0x0000000000005240                DsDefEnv_fmi2GetIntegerStatus
                0x0000000000005250                DsDefEnv_fmi2GetBooleanStatus
                0x0000000000005260                DsDefEnv_fmi2GetStringStatus
 *fill*         0x0000000000005263        0xd 
 .text          0x0000000000005270       0x61 C:\dSPACE\R2022A\dSPACE RCPHIL 2022-A\Compiler\Linux_4.14_GCC_10.3\target\x86_64-linux-gnu\lib\libc_nonshared.a(elf-init.oS)
                0x0000000000005270                __libc_csu_init
                0x00000000000052d0                __libc_csu_fini
 .text          0x00000000000052d1        0x0 c:/dspace/r2022a/dspace rcphil 2022-a/compiler/linux_4.14_gcc_10.3/target/x86_64-linux-gnu/bin/../lib/gcc/x86_64-linux-gnu/10.3.0/crtendS.o
 .text          0x00000000000052d1        0x0 c:/dspace/r2022a/dspace rcphil 2022-a/compiler/linux_4.14_gcc_10.3/target/x86_64-linux-gnu/bin/../../x86_64-linux-gnu/lib/crtn.o
 *(.gnu.warning)

.fini           0x00000000000052d4        0xe
 *(SORT_NONE(.fini))
 .fini          0x00000000000052d4        0x4 c:/dspace/r2022a/dspace rcphil 2022-a/compiler/linux_4.14_gcc_10.3/target/x86_64-linux-gnu/bin/../../x86_64-linux-gnu/lib/crti.o
                0x00000000000052d4                _fini
 .fini          0x00000000000052d8        0x5 c:/dspace/r2022a/dspace rcphil 2022-a/compiler/linux_4.14_gcc_10.3/target/x86_64-linux-gnu/bin/../lib/gcc/x86_64-linux-gnu/10.3.0/crtbeginS.o
 .fini          0x00000000000052dd        0x5 c:/dspace/r2022a/dspace rcphil 2022-a/compiler/linux_4.14_gcc_10.3/target/x86_64-linux-gnu/bin/../../x86_64-linux-gnu/lib/crtn.o
                [!provide]                        PROVIDE (__etext = .)
                [!provide]                        PROVIDE (_etext = .)
                [!provide]                        PROVIDE (etext = .)
                0x0000000000006000                . = ALIGN (CONSTANT (MAXPAGESIZE))
                0x0000000000006000                . = SEGMENT_START ("rodata-segment", (ALIGN (CONSTANT (MAXPAGESIZE)) + (. & (CONSTANT (MAXPAGESIZE) - 0x1))))

.rodata         0x0000000000006000      0x4b9
 *(.rodata .rodata.* .gnu.linkonce.r.*)
 .rodata.cst4   0x0000000000006000        0x4 c:/dspace/r2022a/dspace rcphil 2022-a/compiler/linux_4.14_gcc_10.3/target/x86_64-linux-gnu/bin/../../x86_64-linux-gnu/lib/Scrt1.o
                0x0000000000006000                _IO_stdin_used
 *fill*         0x0000000000006004        0x4 
 .rodata        0x0000000000006008        0x8 dssimengine_accesspoint.o64
 .rodata._ZTS18DsCApplicationMain
                0x0000000000006010       0x15 dssimengine_main.o64
                0x0000000000006010                _ZTS18DsCApplicationMain
 .rodata.str1.1
                0x0000000000006025       0x2a dssimengine_main.o64
 .rodata.str1.1
                0x000000000000604f       0x39 rtosal_task.o64
 .rodata.str1.8
                0x0000000000006088       0xee rtosal_task.o64
 *fill*         0x0000000000006176        0xa 
 .rodata._ZTS24DsCRtosAlPeriodic_Task_1
                0x0000000000006180       0x1b rtosal_task.o64
                0x0000000000006180                _ZTS24DsCRtosAlPeriodic_Task_1
 *fill*         0x000000000000619b        0x5 
 .rodata.cst8   0x00000000000061a0        0x8 rtosal_taskap.o64
 .rodata.str1.8
                0x00000000000061a8       0x62 rtosal_simengineap.o64
 .rodata.str1.1
                0x000000000000620a       0x44 rtosal_simengineap.o64
 *fill*         0x000000000000624e        0x2 
 .rodata.cst8   0x0000000000006250        0x8 rtosal_simengineap.o64
                                         0x10 (size before relaxing)
 .rodata.str1.1
                0x0000000000006258        0xe IOCode_Data.o64
 *fill*         0x0000000000006266        0x2 
 .rodata.str1.8
                0x0000000000006268       0x3e IOCode_Data.o64
 *fill*         0x00000000000062a6        0x2 
 .rodata.cst8   0x00000000000062a8       0x10 IOCode_Data.o64
 .rodata.str1.1
                0x00000000000062b8       0x30 dssimengine_accesspoint_Ethernet_Setup.o64
                                         0x31 (size before relaxing)
 .rodata.cst8   0x00000000000062e8       0x10 dssimengine_accesspoint_PTP_Master.o64
 *fill*         0x00000000000062f8        0x8 
 .rodata.cst16  0x0000000000006300       0x10 dssimengine_accesspoint_PTP_Master.o64
 .rodata.str1.8
                0x0000000000006310       0x7b DsDefEnv_mdlfunctions.o64
 .rodata.str1.1
                0x000000000000638b       0x2e DsDefEnv_mdlfunctions.o64
 .rodata.cst8   0x00000000000063b9        0x8 DsDefEnv_mdlfunctions.o64
 *fill*         0x00000000000063b9        0x3 
 .rodata        0x00000000000063bc       0x2c dsfmu_logger.o64
 .rodata.str1.1
                0x00000000000063e8       0x1a dsfmu_logger.o64
 .rodata.str1.1
                0x0000000000006402       0x18 dsfmu_callbacks.o64
 .rodata.str1.1
                0x0000000000006402       0x17 dsfmu_readwrite.o64
 .rodata.str1.1
                0x0000000000006419       0x13 D:\Users\xiangl\AppData\Local\Temp\dSPACE\CfgDesk\Cache\1\DummyApp_XILAPI_ESI_Testing\Build\AppProc_Master\Compile\DsDefEnv\DsDefEnv.a(DsDefEnv.o64)
 *fill*         0x000000000000642c        0x4 
 .rodata.str1.8
                0x0000000000006430       0x89 D:\Users\xiangl\AppData\Local\Temp\dSPACE\CfgDesk\Cache\1\DummyApp_XILAPI_ESI_Testing\Build\AppProc_Master\Compile\DsDefEnv\DsDefEnv.a(DsDefEnv.o64)
                                         0xb1 (size before relaxing)

.rodata1
 *(.rodata1)

.eh_frame_hdr   0x00000000000064bc      0x474
 *(.eh_frame_hdr)
 .eh_frame_hdr  0x00000000000064bc      0x474 c:/dspace/r2022a/dspace rcphil 2022-a/compiler/linux_4.14_gcc_10.3/target/x86_64-linux-gnu/bin/../../x86_64-linux-gnu/lib/Scrt1.o
                0x00000000000064bc                __GNU_EH_FRAME_HDR
 *(.eh_frame_entry .eh_frame_entry.*)

.eh_frame       0x0000000000006930     0x1160
 *(.eh_frame)
 .eh_frame      0x0000000000006930       0x30 c:/dspace/r2022a/dspace rcphil 2022-a/compiler/linux_4.14_gcc_10.3/target/x86_64-linux-gnu/bin/../../x86_64-linux-gnu/lib/Scrt1.o
                                         0x2c (size before relaxing)
 *fill*         0x0000000000006960        0x0 
 .eh_frame      0x0000000000006960       0x40 c:/dspace/r2022a/dspace rcphil 2022-a/compiler/linux_4.14_gcc_10.3/target/x86_64-linux-gnu/bin/../../x86_64-linux-gnu/lib/Scrt1.o
 .eh_frame      0x00000000000069a0       0x18 c:/dspace/r2022a/dspace rcphil 2022-a/compiler/linux_4.14_gcc_10.3/target/x86_64-linux-gnu/bin/../../x86_64-linux-gnu/lib/Scrt1.o
                                         0x30 (size before relaxing)
 .eh_frame      0x00000000000069b8       0x48 mdladapter_mdlfunctions.o64
                                         0x60 (size before relaxing)
 .eh_frame      0x0000000000006a00       0x18 fm_entry_ap.o64
                                         0x30 (size before relaxing)
 .eh_frame      0x0000000000006a18       0x18 fm_exit_ap.o64
                                         0x30 (size before relaxing)
 .eh_frame      0x0000000000006a30      0x3a0 dssimengine_accesspoint.o64
                                        0x3b8 (size before relaxing)
 .eh_frame      0x0000000000006dd0       0x58 dssimengine_api.o64
                                         0x70 (size before relaxing)
 .eh_frame      0x0000000000006e28      0x1b8 dssimengine_main.o64
                                        0x1d0 (size before relaxing)
 .eh_frame      0x0000000000006fe0      0x1f8 rtosal_task.o64
                                        0x230 (size before relaxing)
 .eh_frame      0x00000000000071d8       0x50 rtosal_taskap.o64
                                         0x68 (size before relaxing)
 .eh_frame      0x0000000000007228       0xb8 rtosal_simengineap.o64
                                         0xd0 (size before relaxing)
 .eh_frame      0x00000000000072e0       0x60 IOCode_Data.o64
                                         0x78 (size before relaxing)
 .eh_frame      0x0000000000007340       0x48 dssimengine_accesspoint_Ethernet_Setup.o64
                                         0x60 (size before relaxing)
 .eh_frame      0x0000000000007388       0x68 dssimengine_accesspoint_PTP_Master.o64
                                         0x80 (size before relaxing)
 .eh_frame      0x00000000000073f0      0x158 DsDefEnv_mdlfunctions.o64
                                        0x170 (size before relaxing)
 .eh_frame      0x0000000000007548      0x148 dsfmu_logger.o64
                                        0x180 (size before relaxing)
 .eh_frame      0x0000000000007690       0xe8 dsfmu_callbacks.o64
                                        0x120 (size before relaxing)
 .eh_frame      0x0000000000007778       0x48 dsfmu_readwrite.o64
                                         0x60 (size before relaxing)
 .eh_frame      0x00000000000077c0      0x270 D:\Users\xiangl\AppData\Local\Temp\dSPACE\CfgDesk\Cache\1\DummyApp_XILAPI_ESI_Testing\Build\AppProc_Master\Compile\DsDefEnv\DsDefEnv.a(DsDefEnv.o64)
                                        0x288 (size before relaxing)
 .eh_frame      0x0000000000007a30       0x5c C:\dSPACE\R2022A\dSPACE RCPHIL 2022-A\Compiler\Linux_4.14_GCC_10.3\target\x86_64-linux-gnu\lib\libc_nonshared.a(elf-init.oS)
                                         0x78 (size before relaxing)
 .eh_frame      0x0000000000007a8c        0x4 c:/dspace/r2022a/dspace rcphil 2022-a/compiler/linux_4.14_gcc_10.3/target/x86_64-linux-gnu/bin/../lib/gcc/x86_64-linux-gnu/10.3.0/crtendS.o
 *(.eh_frame.*)

.gcc_except_table
                0x0000000000007a90       0x76
 *(.gcc_except_table .gcc_except_table.*)
 .gcc_except_table
                0x0000000000007a90       0x14 dssimengine_main.o64
 .gcc_except_table
                0x0000000000007aa4       0x16 rtosal_task.o64
 .gcc_except_table
                0x0000000000007aba       0x38 dsfmu_logger.o64
 .gcc_except_table
                0x0000000000007af2       0x14 dsfmu_callbacks.o64

.gnu_extab
 *(.gnu_extab*)

.exception_ranges
 *(.exception_ranges*)
                0x0000000000009a80                . = DATA_SEGMENT_ALIGN (CONSTANT (MAXPAGESIZE), CONSTANT (COMMONPAGESIZE))

.eh_frame
 *(.eh_frame)
 *(.eh_frame.*)

.gnu_extab
 *(.gnu_extab)

.gcc_except_table
 *(.gcc_except_table .gcc_except_table.*)

.exception_ranges
 *(.exception_ranges*)

.tdata          0x0000000000009a80        0x0
                [!provide]                        PROVIDE (__tdata_start = .)
 *(.tdata .tdata.* .gnu.linkonce.td.*)

.tbss
 *(.tbss .tbss.* .gnu.linkonce.tb.*)
 *(.tcommon)

.preinit_array  0x0000000000009a80        0x0
                [!provide]                        PROVIDE (__preinit_array_start = .)
 *(.preinit_array)
                [!provide]                        PROVIDE (__preinit_array_end = .)

.init_array     0x0000000000009a80       0x28
                0x0000000000009a80                PROVIDE (__init_array_start = .)
 *(SORT_BY_INIT_PRIORITY(.init_array.*) SORT_BY_INIT_PRIORITY(.ctors.*))
 *(.init_array EXCLUDE_FILE(*crtend?.o *crtend.o *crtbegin?.o *crtbegin.o) .ctors)
 .init_array    0x0000000000009a80        0x8 c:/dspace/r2022a/dspace rcphil 2022-a/compiler/linux_4.14_gcc_10.3/target/x86_64-linux-gnu/bin/../lib/gcc/x86_64-linux-gnu/10.3.0/crtbeginS.o
 .ctors         0x0000000000009a88       0x10 dssimengine_main.o64
 .ctors         0x0000000000009a98        0x8 rtosal_simengineap.o64
 .ctors         0x0000000000009aa0        0x8 IOCode_Data.o64
                0x0000000000009aa8                PROVIDE (__init_array_end = .)

.fini_array     0x0000000000009aa8        0x0
                [!provide]                        PROVIDE (__fini_array_start = .)
 *(SORT_BY_INIT_PRIORITY(.fini_array.*) SORT_BY_INIT_PRIORITY(.dtors.*))
 *(.fini_array EXCLUDE_FILE(*crtend?.o *crtend.o *crtbegin?.o *crtbegin.o) .dtors)
                [!provide]                        PROVIDE (__fini_array_end = .)

.ctors          0x0000000000009aa8       0x10
 *crtbegin.o(.ctors)
 *crtbegin?.o(.ctors)
 .ctors         0x0000000000009aa8        0x8 c:/dspace/r2022a/dspace rcphil 2022-a/compiler/linux_4.14_gcc_10.3/target/x86_64-linux-gnu/bin/../lib/gcc/x86_64-linux-gnu/10.3.0/crtbeginS.o
 *(EXCLUDE_FILE(*crtend?.o *crtend.o) .ctors)
 *(SORT_BY_NAME(.ctors.*))
 *(.ctors)
 .ctors         0x0000000000009ab0        0x8 c:/dspace/r2022a/dspace rcphil 2022-a/compiler/linux_4.14_gcc_10.3/target/x86_64-linux-gnu/bin/../lib/gcc/x86_64-linux-gnu/10.3.0/crtendS.o

.dtors          0x0000000000009ab8       0x10
 *crtbegin.o(.dtors)
 *crtbegin?.o(.dtors)
 .dtors         0x0000000000009ab8        0x8 c:/dspace/r2022a/dspace rcphil 2022-a/compiler/linux_4.14_gcc_10.3/target/x86_64-linux-gnu/bin/../lib/gcc/x86_64-linux-gnu/10.3.0/crtbeginS.o
 *(EXCLUDE_FILE(*crtend?.o *crtend.o) .dtors)
 *(SORT_BY_NAME(.dtors.*))
 *(.dtors)
 .dtors         0x0000000000009ac0        0x8 c:/dspace/r2022a/dspace rcphil 2022-a/compiler/linux_4.14_gcc_10.3/target/x86_64-linux-gnu/bin/../lib/gcc/x86_64-linux-gnu/10.3.0/crtendS.o
                0x0000000000009ac0                __DTOR_END__

.jcr
 *(.jcr)

.data.rel.ro    0x0000000000009ac8       0xb0
 *(.data.rel.ro.local* .gnu.linkonce.d.rel.ro.local.*)
 *(.data.rel.ro .data.rel.ro.* .gnu.linkonce.d.rel.ro.*)
 .data.rel.ro   0x0000000000009ac8        0x0 c:/dspace/r2022a/dspace rcphil 2022-a/compiler/linux_4.14_gcc_10.3/target/x86_64-linux-gnu/bin/../../x86_64-linux-gnu/lib/Scrt1.o
 .data.rel.ro._ZTI18DsCApplicationMain
                0x0000000000009ac8       0x18 dssimengine_main.o64
                0x0000000000009ac8                _ZTI18DsCApplicationMain
 .data.rel.ro._ZTV18DsCApplicationMain
                0x0000000000009ae0       0x50 dssimengine_main.o64
                0x0000000000009ae0                _ZTV18DsCApplicationMain
 .data.rel.ro._ZTI24DsCRtosAlPeriodic_Task_1
                0x0000000000009b30       0x18 rtosal_task.o64
                0x0000000000009b30                _ZTI24DsCRtosAlPeriodic_Task_1
 .data.rel.ro._ZTV24DsCRtosAlPeriodic_Task_1
                0x0000000000009b48       0x30 rtosal_task.o64
                0x0000000000009b48                _ZTV24DsCRtosAlPeriodic_Task_1

.dynamic        0x0000000000009b78      0x260
 *(.dynamic)
 .dynamic       0x0000000000009b78      0x260 c:/dspace/r2022a/dspace rcphil 2022-a/compiler/linux_4.14_gcc_10.3/target/x86_64-linux-gnu/bin/../../x86_64-linux-gnu/lib/Scrt1.o
                0x0000000000009b78                _DYNAMIC

.got            0x0000000000009dd8      0x228
 *(.got)
 .got           0x0000000000009dd8      0x228 c:/dspace/r2022a/dspace rcphil 2022-a/compiler/linux_4.14_gcc_10.3/target/x86_64-linux-gnu/bin/../../x86_64-linux-gnu/lib/Scrt1.o
 *(.igot)
                0x000000000000afe8                . = DATA_SEGMENT_RELRO_END (., (SIZEOF (.got.plt) >= 0x18)?0x18:0x0)

.got.plt        0x000000000000a000       0x18
 *(.got.plt)
 .got.plt       0x000000000000a000       0x18 c:/dspace/r2022a/dspace rcphil 2022-a/compiler/linux_4.14_gcc_10.3/target/x86_64-linux-gnu/bin/../../x86_64-linux-gnu/lib/Scrt1.o
                0x000000000000a000                _GLOBAL_OFFSET_TABLE_
 *(.igot.plt)

.data           0x000000000000a020      0x108
 *(.data .data.* .gnu.linkonce.d.*)
 .data          0x000000000000a020        0x4 c:/dspace/r2022a/dspace rcphil 2022-a/compiler/linux_4.14_gcc_10.3/target/x86_64-linux-gnu/bin/../../x86_64-linux-gnu/lib/Scrt1.o
                0x000000000000a020                __data_start
                0x000000000000a020                data_start
 .data          0x000000000000a024        0x0 c:/dspace/r2022a/dspace rcphil 2022-a/compiler/linux_4.14_gcc_10.3/target/x86_64-linux-gnu/bin/../../x86_64-linux-gnu/lib/crti.o
 .data          0x000000000000a024        0x0 c:/dspace/r2022a/dspace rcphil 2022-a/compiler/linux_4.14_gcc_10.3/target/x86_64-linux-gnu/bin/../lib/gcc/x86_64-linux-gnu/10.3.0/crtbeginS.o
 *fill*         0x000000000000a024        0x4 
 .data.rel.local
                0x000000000000a028        0x8 c:/dspace/r2022a/dspace rcphil 2022-a/compiler/linux_4.14_gcc_10.3/target/x86_64-linux-gnu/bin/../lib/gcc/x86_64-linux-gnu/10.3.0/crtbeginS.o
                0x000000000000a028                __dso_handle
 .data          0x000000000000a030        0x0 mdladapter_mdlfunctions.o64
 .data          0x000000000000a030        0x0 mdlCode_ap.o64
 .data          0x000000000000a030        0x0 data_in_ap.o64
 .data          0x000000000000a030        0x0 data_out_ap.o64
 .data          0x000000000000a030        0x0 fm_entry_ap.o64
 .data          0x000000000000a030        0x0 fm_exit_ap.o64
 .data          0x000000000000a030        0x1 dssimengine_accesspoint.o64
                0x000000000000a030                isFirstSimulation
 .data          0x000000000000a031        0x0 dssimengine_api.o64
 *fill*         0x000000000000a031        0x3 
 .data          0x000000000000a034        0xc dssimengine_main.o64
                0x000000000000a034                DsFwIfVersion
                0x000000000000a038                DsApplIfVersion
                0x000000000000a03c                SimEngineLastApplState
 .data.rel      0x000000000000a040       0x50 dssimengine_main.o64
                0x000000000000a040                ApplInfoDsCApplicationMain
 .data.rel.local.DW.ref.__gxx_personality_v0
                0x000000000000a090        0x8 dssimengine_main.o64
                0x000000000000a090                DW.ref.__gxx_personality_v0
 .data          0x000000000000a098        0x8 rtosal_task.o64
                0x000000000000a098                rampUpTimeInit
 .data          0x000000000000a0a0        0x0 rtosal_taskap.o64
 .data          0x000000000000a0a0       0x14 rtosal_simengineap.o64
                0x000000000000a0a0                ScalingFactor
                0x000000000000a0a8                g_dsrtt_comm_enabled
 *fill*         0x000000000000a0b4        0xc 
 .data          0x000000000000a0c0       0x34 IOCode_Data.o64
                0x000000000000a0c0                g_ResourceMap
 .data          0x000000000000a0f4        0x0 dssimengine_accesspoint_Ethernet_Setup.o64
 .data          0x000000000000a0f4        0x0 dssimengine_accesspoint_PTP_Master.o64
 .data          0x000000000000a0f4        0x0 DsDefEnv_mdlfunctions.o64
 *fill*         0x000000000000a0f4        0xc 
 .data.rel      0x000000000000a100       0x28 DsDefEnv_mdlfunctions.o64
                0x000000000000a100                DsDefEnv_DSFMUcallbackFunctions
 .data          0x000000000000a128        0x0 dsfmu_logger.o64
 .data          0x000000000000a128        0x0 dsfmu_callbacks.o64
 .data          0x000000000000a128        0x0 dsfmu_readwrite.o64
 .data          0x000000000000a128        0x0 D:\Users\xiangl\AppData\Local\Temp\dSPACE\CfgDesk\Cache\1\DummyApp_XILAPI_ESI_Testing\Build\AppProc_Master\Compile\DsDefEnv\DsDefEnv.a(DsDefEnv.o64)
 .data          0x000000000000a128        0x0 C:\dSPACE\R2022A\dSPACE RCPHIL 2022-A\Compiler\Linux_4.14_GCC_10.3\target\x86_64-linux-gnu\lib\libc_nonshared.a(elf-init.oS)
 .data          0x000000000000a128        0x0 c:/dspace/r2022a/dspace rcphil 2022-a/compiler/linux_4.14_gcc_10.3/target/x86_64-linux-gnu/bin/../lib/gcc/x86_64-linux-gnu/10.3.0/crtendS.o
 .data          0x000000000000a128        0x0 c:/dspace/r2022a/dspace rcphil 2022-a/compiler/linux_4.14_gcc_10.3/target/x86_64-linux-gnu/bin/../../x86_64-linux-gnu/lib/crtn.o

.tm_clone_table
                0x000000000000a128        0x0
 .tm_clone_table
                0x000000000000a128        0x0 c:/dspace/r2022a/dspace rcphil 2022-a/compiler/linux_4.14_gcc_10.3/target/x86_64-linux-gnu/bin/../lib/gcc/x86_64-linux-gnu/10.3.0/crtbeginS.o
 .tm_clone_table
                0x000000000000a128        0x0 c:/dspace/r2022a/dspace rcphil 2022-a/compiler/linux_4.14_gcc_10.3/target/x86_64-linux-gnu/bin/../lib/gcc/x86_64-linux-gnu/10.3.0/crtendS.o

.data1
 *(.data1)
                0x000000000000a128                _edata = .
                [!provide]                        PROVIDE (edata = .)
                0x000000000000a128                . = .
                0x000000000000a128                __bss_start = .

.bss            0x000000000000a140      0x720
 *(.dynbss)
 .dynbss        0x000000000000a140        0x0 c:/dspace/r2022a/dspace rcphil 2022-a/compiler/linux_4.14_gcc_10.3/target/x86_64-linux-gnu/bin/../../x86_64-linux-gnu/lib/Scrt1.o
 *(.bss .bss.* .gnu.linkonce.b.*)
 .bss           0x000000000000a140        0x0 c:/dspace/r2022a/dspace rcphil 2022-a/compiler/linux_4.14_gcc_10.3/target/x86_64-linux-gnu/bin/../../x86_64-linux-gnu/lib/Scrt1.o
 .bss           0x000000000000a140        0x0 c:/dspace/r2022a/dspace rcphil 2022-a/compiler/linux_4.14_gcc_10.3/target/x86_64-linux-gnu/bin/../../x86_64-linux-gnu/lib/crti.o
 .bss           0x000000000000a140       0x10 c:/dspace/r2022a/dspace rcphil 2022-a/compiler/linux_4.14_gcc_10.3/target/x86_64-linux-gnu/bin/../lib/gcc/x86_64-linux-gnu/10.3.0/crtbeginS.o
 .bss           0x000000000000a150        0x0 mdladapter_mdlfunctions.o64
 .bss           0x000000000000a150        0x0 mdlCode_ap.o64
 .bss           0x000000000000a150        0x0 data_in_ap.o64
 .bss           0x000000000000a150        0x0 data_out_ap.o64
 .bss           0x000000000000a150        0x0 fm_entry_ap.o64
 .bss           0x000000000000a150        0x0 fm_exit_ap.o64
 .bss           0x000000000000a150       0x68 dssimengine_accesspoint.o64
                0x000000000000a150                xilApiEesPortTrigger
                0x000000000000a158                xilApiEesPortFlags
                0x000000000000a160                pXilApiEesPortErrorSwitching
                0x000000000000a168                pXilApiEesPortErrorActivated
                0x000000000000a170                pXilApiEesPortActiveErrorSet
                0x000000000000a178                pFailureSimulationRelaySwitching
                0x000000000000a180                pFailureSimulationSequenceCount
                0x000000000000a188                pFailureSimulationFailureActivated
                0x000000000000a190                pFailureSimulationFailureConfigured
                0x000000000000a198                pFailureSimulationClientConnected
                0x000000000000a1a0                MemoryUsage
                0x000000000000a1a8                pFuseRestoreRequest
                0x000000000000a1b0                pFuseActualStatus
 .bss           0x000000000000a1b8        0x0 dssimengine_api.o64
 .bss           0x000000000000a1b8       0x10 dssimengine_main.o64
                0x000000000000a1b8                _ZN18DsCApplicationMain11s_pInstanceE
                0x000000000000a1c0                ErrorList
 .bss           0x000000000000a1c8       0x40 rtosal_task.o64
                0x000000000000a1c8                DsDefEnv_DSFMUStep_MaxTurnaroundTime
                0x000000000000a1d0                RtosAlCompFuncTime_DsDefEnv_DSFMUStep
                0x000000000000a1d8                StepCounter_Periodic_Task_1
                0x000000000000a1e0                RtosAlTaskSimTime_Periodic_Task_1
                0x000000000000a1e8                rampUpTime
                0x000000000000a1f0                pRtosAlTimer_Periodic_Task_1
                0x000000000000a1f8                pRtosAlPeriodic_Task_1
                0x000000000000a200                _ZN24DsCRtosAlPeriodic_Task_111m_pInstanceE
 .bss           0x000000000000a208        0x0 rtosal_taskap.o64
 *fill*         0x000000000000a208       0x18 
 .bss           0x000000000000a220       0x78 rtosal_simengineap.o64
                0x000000000000a220                Periodic_Task_1Vars_MaxTurnaroundTime
                0x000000000000a240                Periodic_Task_1Vars
                0x000000000000a240                Periodic_Task_1Vars_OvnCounter
                0x000000000000a248                Periodic_Task_1Vars_TurnaroundTime
                0x000000000000a250                Periodic_Task_1Vars_Calls
                0x000000000000a258                Periodic_Task_1Vars_QueueCounter
                0x000000000000a260                Periodic_Task_1Vars_AbsoluteTime
                0x000000000000a290                ScaledTimeInterval
 *fill*         0x000000000000a298        0x8 
 .bss           0x000000000000a2a0      0x198 IOCode_Data.o64
                0x000000000000a2a0                DsDefEnv_FunctionModule_StepFunction
                0x000000000000a2a8                fcnModule_RuntimeTunableParams
                0x000000000000a2b0                pTPMaster_HIL_DmnClkCurrentTime
                0x000000000000a2b8                pTPMaster_HIL_PtpStarted
                0x000000000000a2c0                pTPMaster_HIL_PtpConfigElement
                0x000000000000a428                pPTPMaster_HIL_DriverHandle
                0x000000000000a430                pSetup_PTPSync_HIL_DriverHandle
 .bss           0x000000000000a438        0x0 dssimengine_accesspoint_Ethernet_Setup.o64
 .bss           0x000000000000a438        0x0 dssimengine_accesspoint_PTP_Master.o64
 .bss           0x000000000000a438       0x18 DsDefEnv_mdlfunctions.o64
                0x000000000000a438                DsDefEnv_StartedOnce
                0x000000000000a43c                DsDefEnv_DSFMUfmiGlobalErrorStatus
                0x000000000000a440                DsDefEnv_DSFMUfmiErrorStatus
                0x000000000000a448                DsDefEnv_DSFMUfmuComponent
 .bss           0x000000000000a450        0x0 dsfmu_logger.o64
 .bss           0x000000000000a450        0x0 dsfmu_callbacks.o64
 *fill*         0x000000000000a450       0x10 
 .bss           0x000000000000a460      0x400 dsfmu_readwrite.o64
 .bss           0x000000000000a860        0x0 D:\Users\xiangl\AppData\Local\Temp\dSPACE\CfgDesk\Cache\1\DummyApp_XILAPI_ESI_Testing\Build\AppProc_Master\Compile\DsDefEnv\DsDefEnv.a(DsDefEnv.o64)
 .bss           0x000000000000a860        0x0 C:\dSPACE\R2022A\dSPACE RCPHIL 2022-A\Compiler\Linux_4.14_GCC_10.3\target\x86_64-linux-gnu\lib\libc_nonshared.a(elf-init.oS)
 .bss           0x000000000000a860        0x0 c:/dspace/r2022a/dspace rcphil 2022-a/compiler/linux_4.14_gcc_10.3/target/x86_64-linux-gnu/bin/../lib/gcc/x86_64-linux-gnu/10.3.0/crtendS.o
 .bss           0x000000000000a860        0x0 c:/dspace/r2022a/dspace rcphil 2022-a/compiler/linux_4.14_gcc_10.3/target/x86_64-linux-gnu/bin/../../x86_64-linux-gnu/lib/crtn.o
 *(COMMON)
                0x000000000000a860                . = ALIGN ((. != 0x0)?0x8:0x1)

.lbss
 *(.dynlbss)
 *(.lbss .lbss.* .gnu.linkonce.lb.*)
 *(LARGE_COMMON)
                0x000000000000a860                . = ALIGN (0x8)
                0x000000000000a860                . = SEGMENT_START ("ldata-segment", .)

.lrodata
 *(.lrodata .lrodata.* .gnu.linkonce.lr.*)

.ldata          0x000000000000c860        0x0
 *(.ldata .ldata.* .gnu.linkonce.l.*)
                0x000000000000c860                . = ALIGN ((. != 0x0)?0x8:0x1)
                0x000000000000c860                . = ALIGN (0x8)
                0x000000000000a860                _end = .
                [!provide]                        PROVIDE (end = .)
                0x000000000000c860                . = DATA_SEGMENT_END (.)

.stab
 *(.stab)

.stabstr
 *(.stabstr)

.stab.excl
 *(.stab.excl)

.stab.exclstr
 *(.stab.exclstr)

.stab.index
 *(.stab.index)

.stab.indexstr
 *(.stab.indexstr)

.comment        0x0000000000000000       0x3c
 *(.comment)
 .comment       0x0000000000000000       0x12 c:/dspace/r2022a/dspace rcphil 2022-a/compiler/linux_4.14_gcc_10.3/target/x86_64-linux-gnu/bin/../../x86_64-linux-gnu/lib/Scrt1.o
                                         0x26 (size before relaxing)
 .comment       0x0000000000000012       0x2a c:/dspace/r2022a/dspace rcphil 2022-a/compiler/linux_4.14_gcc_10.3/target/x86_64-linux-gnu/bin/../lib/gcc/x86_64-linux-gnu/10.3.0/crtbeginS.o
                                         0x2b (size before relaxing)
 .comment       0x000000000000003c       0x13 mdladapter_mdlfunctions.o64
 .comment       0x000000000000003c       0x13 mdlCode_ap.o64
 .comment       0x000000000000003c       0x13 data_in_ap.o64
 .comment       0x000000000000003c       0x13 data_out_ap.o64
 .comment       0x000000000000003c       0x13 fm_entry_ap.o64
 .comment       0x000000000000003c       0x13 fm_exit_ap.o64
 .comment       0x000000000000003c       0x13 dssimengine_accesspoint.o64
 .comment       0x000000000000003c       0x13 dssimengine_api.o64
 .comment       0x000000000000003c       0x13 dssimengine_main.o64
 .comment       0x000000000000003c       0x13 rtosal_task.o64
 .comment       0x000000000000003c       0x13 rtosal_taskap.o64
 .comment       0x000000000000003c       0x13 rtosal_simengineap.o64
 .comment       0x000000000000003c       0x13 IOCode_Data.o64
 .comment       0x000000000000003c       0x13 dssimengine_accesspoint_Ethernet_Setup.o64
 .comment       0x000000000000003c       0x13 dssimengine_accesspoint_PTP_Master.o64
 .comment       0x000000000000003c       0x13 DsDefEnv_mdlfunctions.o64
 .comment       0x000000000000003c       0x13 dsfmu_logger.o64
 .comment       0x000000000000003c       0x13 dsfmu_callbacks.o64
 .comment       0x000000000000003c       0x13 dsfmu_readwrite.o64
 .comment       0x000000000000003c       0x13 D:\Users\xiangl\AppData\Local\Temp\dSPACE\CfgDesk\Cache\1\DummyApp_XILAPI_ESI_Testing\Build\AppProc_Master\Compile\DsDefEnv\DsDefEnv.a(DsDefEnv.o64)
 .comment       0x000000000000003c       0x13 C:\dSPACE\R2022A\dSPACE RCPHIL 2022-A\Compiler\Linux_4.14_GCC_10.3\target\x86_64-linux-gnu\lib\libc_nonshared.a(elf-init.oS)
 .comment       0x000000000000003c       0x2b c:/dspace/r2022a/dspace rcphil 2022-a/compiler/linux_4.14_gcc_10.3/target/x86_64-linux-gnu/bin/../lib/gcc/x86_64-linux-gnu/10.3.0/crtendS.o

.gnu.build.attributes
 *(.gnu.build.attributes .gnu.build.attributes.*)

.debug
 *(.debug)

.line
 *(.line)

.debug_srcinfo
 *(.debug_srcinfo)

.debug_sfnames
 *(.debug_sfnames)

.debug_aranges  0x0000000000000000      0x120
 *(.debug_aranges)
 .debug_aranges
                0x0000000000000000       0x70 c:/dspace/r2022a/dspace rcphil 2022-a/compiler/linux_4.14_gcc_10.3/target/x86_64-linux-gnu/bin/../../x86_64-linux-gnu/lib/Scrt1.o
 .debug_aranges
                0x0000000000000070       0x40 c:/dspace/r2022a/dspace rcphil 2022-a/compiler/linux_4.14_gcc_10.3/target/x86_64-linux-gnu/bin/../../x86_64-linux-gnu/lib/crti.o
 .debug_aranges
                0x00000000000000b0       0x30 C:\dSPACE\R2022A\dSPACE RCPHIL 2022-A\Compiler\Linux_4.14_GCC_10.3\target\x86_64-linux-gnu\lib\libc_nonshared.a(elf-init.oS)
 .debug_aranges
                0x00000000000000e0       0x40 c:/dspace/r2022a/dspace rcphil 2022-a/compiler/linux_4.14_gcc_10.3/target/x86_64-linux-gnu/bin/../../x86_64-linux-gnu/lib/crtn.o

.debug_pubnames
 *(.debug_pubnames)

.debug_info     0x0000000000000000      0x71c
 *(.debug_info .gnu.linkonce.wi.*)
 .debug_info    0x0000000000000000      0x53f c:/dspace/r2022a/dspace rcphil 2022-a/compiler/linux_4.14_gcc_10.3/target/x86_64-linux-gnu/bin/../../x86_64-linux-gnu/lib/Scrt1.o
 .debug_info    0x000000000000053f       0x22 c:/dspace/r2022a/dspace rcphil 2022-a/compiler/linux_4.14_gcc_10.3/target/x86_64-linux-gnu/bin/../../x86_64-linux-gnu/lib/crti.o
 .debug_info    0x0000000000000561      0x199 C:\dSPACE\R2022A\dSPACE RCPHIL 2022-A\Compiler\Linux_4.14_GCC_10.3\target\x86_64-linux-gnu\lib\libc_nonshared.a(elf-init.oS)
 .debug_info    0x00000000000006fa       0x22 c:/dspace/r2022a/dspace rcphil 2022-a/compiler/linux_4.14_gcc_10.3/target/x86_64-linux-gnu/bin/../../x86_64-linux-gnu/lib/crtn.o

.debug_abbrev   0x0000000000000000      0x2a1
 *(.debug_abbrev)
 .debug_abbrev  0x0000000000000000      0x153 c:/dspace/r2022a/dspace rcphil 2022-a/compiler/linux_4.14_gcc_10.3/target/x86_64-linux-gnu/bin/../../x86_64-linux-gnu/lib/Scrt1.o
 .debug_abbrev  0x0000000000000153       0x12 c:/dspace/r2022a/dspace rcphil 2022-a/compiler/linux_4.14_gcc_10.3/target/x86_64-linux-gnu/bin/../../x86_64-linux-gnu/lib/crti.o
 .debug_abbrev  0x0000000000000165      0x12a C:\dSPACE\R2022A\dSPACE RCPHIL 2022-A\Compiler\Linux_4.14_GCC_10.3\target\x86_64-linux-gnu\lib\libc_nonshared.a(elf-init.oS)
 .debug_abbrev  0x000000000000028f       0x12 c:/dspace/r2022a/dspace rcphil 2022-a/compiler/linux_4.14_gcc_10.3/target/x86_64-linux-gnu/bin/../../x86_64-linux-gnu/lib/crtn.o

.debug_line     0x0000000000000000      0x332
 *(.debug_line .debug_line.* .debug_line_end)
 .debug_line    0x0000000000000000      0x154 c:/dspace/r2022a/dspace rcphil 2022-a/compiler/linux_4.14_gcc_10.3/target/x86_64-linux-gnu/bin/../../x86_64-linux-gnu/lib/Scrt1.o
 .debug_line    0x0000000000000154       0x65 c:/dspace/r2022a/dspace rcphil 2022-a/compiler/linux_4.14_gcc_10.3/target/x86_64-linux-gnu/bin/../../x86_64-linux-gnu/lib/crti.o
 .debug_line    0x00000000000001b9      0x118 C:\dSPACE\R2022A\dSPACE RCPHIL 2022-A\Compiler\Linux_4.14_GCC_10.3\target\x86_64-linux-gnu\lib\libc_nonshared.a(elf-init.oS)
 .debug_line    0x00000000000002d1       0x61 c:/dspace/r2022a/dspace rcphil 2022-a/compiler/linux_4.14_gcc_10.3/target/x86_64-linux-gnu/bin/../../x86_64-linux-gnu/lib/crtn.o

.debug_frame
 *(.debug_frame)

.debug_str      0x0000000000000000      0x4b6
 *(.debug_str)
 .debug_str     0x0000000000000000      0x366 c:/dspace/r2022a/dspace rcphil 2022-a/compiler/linux_4.14_gcc_10.3/target/x86_64-linux-gnu/bin/../../x86_64-linux-gnu/lib/Scrt1.o
                                        0x4e6 (size before relaxing)
 .debug_str     0x0000000000000366       0x19 c:/dspace/r2022a/dspace rcphil 2022-a/compiler/linux_4.14_gcc_10.3/target/x86_64-linux-gnu/bin/../../x86_64-linux-gnu/lib/crti.o
                                         0x51 (size before relaxing)
 .debug_str     0x000000000000037f      0x11e C:\dSPACE\R2022A\dSPACE RCPHIL 2022-A\Compiler\Linux_4.14_GCC_10.3\target\x86_64-linux-gnu\lib\libc_nonshared.a(elf-init.oS)
                                        0x18a (size before relaxing)
 .debug_str     0x000000000000049d       0x19 c:/dspace/r2022a/dspace rcphil 2022-a/compiler/linux_4.14_gcc_10.3/target/x86_64-linux-gnu/bin/../../x86_64-linux-gnu/lib/crtn.o
                                         0x51 (size before relaxing)

.debug_loc      0x0000000000000000      0x16f
 *(.debug_loc)
 .debug_loc     0x0000000000000000      0x16f C:\dSPACE\R2022A\dSPACE RCPHIL 2022-A\Compiler\Linux_4.14_GCC_10.3\target\x86_64-linux-gnu\lib\libc_nonshared.a(elf-init.oS)

.debug_macinfo
 *(.debug_macinfo)

.debug_weaknames
 *(.debug_weaknames)

.debug_funcnames
 *(.debug_funcnames)

.debug_typenames
 *(.debug_typenames)

.debug_varnames
 *(.debug_varnames)

.debug_pubtypes
 *(.debug_pubtypes)

.debug_ranges   0x0000000000000000       0x80
 *(.debug_ranges)
 .debug_ranges  0x0000000000000000       0x40 c:/dspace/r2022a/dspace rcphil 2022-a/compiler/linux_4.14_gcc_10.3/target/x86_64-linux-gnu/bin/../../x86_64-linux-gnu/lib/crti.o
 .debug_ranges  0x0000000000000040       0x40 c:/dspace/r2022a/dspace rcphil 2022-a/compiler/linux_4.14_gcc_10.3/target/x86_64-linux-gnu/bin/../../x86_64-linux-gnu/lib/crtn.o

.debug_macro
 *(.debug_macro)

.debug_addr
 *(.debug_addr)

.gnu.attributes
 *(.gnu.attributes)

/DISCARD/
 *(.note.GNU-stack)
 *(.gnu_debuglink)
 *(.gnu.lto_*)
OUTPUT(AppProc_Master.x64 elf64-x86-64)
